target datalayout = "e-m:e-p270:32:32-p271:32:32-p272:64:64-i64:64-i128:128-f80:128-n8:16:32:64-S128"
target triple = "x86_64-pc-linux-gnu"

%struct.Ssw_Man_t_ = type { ptr, i32, ptr, ptr, ptr, ptr, i32, ptr, ptr, ptr, i32, i32, i32, i32, i32, i32, i32, i32, i32, i32, i32, ptr, i32, ptr, i32, i32, i32, i32, ptr, ptr, ptr, i32, ptr, i32, i32, ptr, ptr, ptr, i32, ptr, i32, i32, i32, i32, i32, i32, i32, i32, i32, i32, i32, i32, i32, i32, i32, i32, i32, i32, i32, i32, i32, i32, i64, i64, i64, i64, i64, i64, i64, i64, i64, i64 }
%struct.Ssw_Pars_t_ = type { i32, i32, i32, i32, i32, i32, i32, i32, i32, i32, i32, i32, i32, i32, i32, i32, i32, i32, i32, i32, i32, i32, i32, i32, i32, i32, i32, i32, i32, i32, i32, i32, i32, i32, i32, i32, i32, i32, i32, i32, ptr, ptr }
%struct.Ssw_Sat_t_ = type { ptr, i32, ptr, i32, ptr, ptr, ptr, i32 }
%struct.Aig_Obj_t_ = type { %union.anon, ptr, ptr, i64, i32, i32, %union.anon.0 }
%union.anon = type { ptr }
%union.anon.0 = type { ptr }
%struct.Aig_Man_t_ = type { ptr, ptr, ptr, ptr, ptr, ptr, ptr, %struct.Aig_Obj_t_, i32, i32, i32, i32, i32, i32, [7 x i32], i32, ptr, i32, ptr, i32, ptr, i32, i32, i32, ptr, i32, i32, i32, i32, i32, ptr, ptr, i32, ptr, ptr, i32, ptr, ptr, i32, i32, i32, ptr, ptr, ptr, ptr, ptr, ptr, ptr, ptr, ptr, ptr, ptr, ptr, ptr, ptr, i32, ptr, ptr, ptr, ptr, i32, i64, i64, i64, ptr, ptr }

; Function Attrs: nounwind uwtable
define internal i32 @lit_neg(i32 noundef %0) #0 {
  %2 = alloca i32, align 4
  store i32 %0, ptr %2, align 4
  %3 = load i32, ptr %2, align 4
  %4 = xor i32 %3, 1
  ret i32 %4
}

; Function Attrs: nounwind uwtable
define internal i32 @toLitCond(i32 noundef %0, i32 noundef %1) #0 {
  %3 = alloca i32, align 4
  %4 = alloca i32, align 4
  store i32 %0, ptr %3, align 4
  store i32 %1, ptr %4, align 4
  %5 = load i32, ptr %3, align 4
  %6 = load i32, ptr %3, align 4
  %7 = add nsw i32 %5, %6
  %8 = load i32, ptr %4, align 4
  %9 = icmp ne i32 %8, 0
  %10 = zext i1 %9 to i32
  %11 = add nsw i32 %7, %10
  ret i32 %11
}

; Function Attrs: nounwind uwtable
define internal ptr @Aig_Not(ptr noundef %0) #0 {
  %2 = alloca ptr, align 8
  store ptr %0, ptr %2, align 8
  %3 = load ptr, ptr %2, align 8
  %4 = ptrtoint ptr %3 to i64
  %5 = xor i64 %4, 1
  %6 = inttoptr i64 %5 to ptr
  ret ptr %6
}

; Function Attrs: nounwind uwtable
define internal i32 @Aig_IsComplement(ptr noundef %0) #0 {
  %2 = alloca ptr, align 8
  store ptr %0, ptr %2, align 8
  %3 = load ptr, ptr %2, align 8
  %4 = ptrtoint ptr %3 to i64
  %5 = and i64 %4, 1
  %6 = trunc i64 %5 to i32
  ret i32 %6
}

; Function Attrs: nounwind uwtable
define internal ptr @Aig_ManConst1(ptr noundef %0) #0 {
  %2 = alloca ptr, align 8
  store ptr %0, ptr %2, align 8
  %3 = load ptr, ptr %2, align 8
  %4 = getelementptr inbounds %struct.Aig_Man_t_, ptr %3, i32 0, i32 6
  %5 = load ptr, ptr %4, align 8
  ret ptr %5
}

; Function Attrs: nounwind uwtable
define internal ptr @Aig_Regular(ptr noundef %0) #0 {
  %2 = alloca ptr, align 8
  store ptr %0, ptr %2, align 8
  %3 = load ptr, ptr %2, align 8
  %4 = ptrtoint ptr %3 to i64
  %5 = and i64 %4, -2
  %6 = inttoptr i64 %5 to ptr
  ret ptr %6
}

; Function Attrs: nounwind uwtable
define i32 @Ssw_NodesAreConstrained(ptr noundef %0, ptr noundef %1, ptr noundef %2) #0 {
  %4 = alloca ptr, align 8
  %5 = alloca ptr, align 8
  %6 = alloca ptr, align 8
  %7 = alloca [2 x i32], align 4
  %8 = alloca i32, align 4
  %9 = alloca i32, align 4
  %10 = alloca ptr, align 8
  store ptr %0, ptr %4, align 8
  store ptr %1, ptr %5, align 8
  store ptr %2, ptr %6, align 8
  %11 = load ptr, ptr %6, align 8
  %12 = call ptr @Aig_Regular(ptr noundef %11)
  %13 = load ptr, ptr %4, align 8
  %14 = getelementptr inbounds %struct.Ssw_Man_t_, ptr %13, i32 0, i32 3
  %15 = load ptr, ptr %14, align 8
  %16 = call ptr @Aig_ManConst1(ptr noundef %15)
  %17 = icmp eq ptr %12, %16
  br i1 %17, label %18, label %22

18:                                               ; preds = %3
  %19 = load ptr, ptr %5, align 8
  store ptr %19, ptr %10, align 8
  %20 = load ptr, ptr %6, align 8
  store ptr %20, ptr %5, align 8
  %21 = load ptr, ptr %10, align 8
  store ptr %21, ptr %6, align 8
  br label %22

22:                                               ; preds = %18, %3
  %23 = load ptr, ptr %5, align 8
  %24 = call i32 @Aig_IsComplement(ptr noundef %23)
  %25 = icmp ne i32 %24, 0
  br i1 %25, label %26, label %31

26:                                               ; preds = %22
  %27 = load ptr, ptr %5, align 8
  %28 = call ptr @Aig_Regular(ptr noundef %27)
  store ptr %28, ptr %5, align 8
  %29 = load ptr, ptr %6, align 8
  %30 = call ptr @Aig_Not(ptr noundef %29)
  store ptr %30, ptr %6, align 8
  br label %31

31:                                               ; preds = %26, %22
  %32 = load ptr, ptr %4, align 8
  %33 = getelementptr inbounds %struct.Ssw_Man_t_, ptr %32, i32 0, i32 8
  %34 = load ptr, ptr %33, align 8
  %35 = load ptr, ptr %5, align 8
  call void @Ssw_CnfNodeAddToSolver(ptr noundef %34, ptr noundef %35)
  %36 = load ptr, ptr %4, align 8
  %37 = getelementptr inbounds %struct.Ssw_Man_t_, ptr %36, i32 0, i32 8
  %38 = load ptr, ptr %37, align 8
  %39 = load ptr, ptr %6, align 8
  %40 = call ptr @Aig_Regular(ptr noundef %39)
  call void @Ssw_CnfNodeAddToSolver(ptr noundef %38, ptr noundef %40)
  %41 = load ptr, ptr %6, align 8
  %42 = call i32 @Aig_IsComplement(ptr noundef %41)
  store i32 %42, ptr %9, align 4
  %43 = load ptr, ptr %6, align 8
  %44 = call ptr @Aig_Regular(ptr noundef %43)
  store ptr %44, ptr %6, align 8
  %45 = load ptr, ptr %5, align 8
  %46 = load ptr, ptr %4, align 8
  %47 = getelementptr inbounds %struct.Ssw_Man_t_, ptr %46, i32 0, i32 3
  %48 = load ptr, ptr %47, align 8
  %49 = call ptr @Aig_ManConst1(ptr noundef %48)
  %50 = icmp eq ptr %45, %49
  br i1 %50, label %51, label %90

51:                                               ; preds = %31
  %52 = load ptr, ptr %4, align 8
  %53 = getelementptr inbounds %struct.Ssw_Man_t_, ptr %52, i32 0, i32 8
  %54 = load ptr, ptr %53, align 8
  %55 = load ptr, ptr %6, align 8
  %56 = call i32 @Ssw_ObjSatNum(ptr noundef %54, ptr noundef %55)
  %57 = load i32, ptr %9, align 4
  %58 = call i32 @toLitCond(i32 noundef %56, i32 noundef %57)
  %59 = getelementptr inbounds [2 x i32], ptr %7, i64 0, i64 0
  store i32 %58, ptr %59, align 4
  %60 = load ptr, ptr %4, align 8
  %61 = getelementptr inbounds %struct.Ssw_Man_t_, ptr %60, i32 0, i32 0
  %62 = load ptr, ptr %61, align 8
  %63 = getelementptr inbounds %struct.Ssw_Pars_t_, ptr %62, i32 0, i32 17
  %64 = load i32, ptr %63, align 4
  %65 = icmp ne i32 %64, 0
  br i1 %65, label %66, label %80

66:                                               ; preds = %51
  %67 = load ptr, ptr %6, align 8
  %68 = getelementptr inbounds %struct.Aig_Obj_t_, ptr %67, i32 0, i32 3
  %69 = load i64, ptr %68, align 8
  %70 = lshr i64 %69, 3
  %71 = and i64 %70, 1
  %72 = trunc i64 %71 to i32
  %73 = icmp ne i32 %72, 0
  br i1 %73, label %74, label %79

74:                                               ; preds = %66
  %75 = getelementptr inbounds [2 x i32], ptr %7, i64 0, i64 0
  %76 = load i32, ptr %75, align 4
  %77 = call i32 @lit_neg(i32 noundef %76)
  %78 = getelementptr inbounds [2 x i32], ptr %7, i64 0, i64 0
  store i32 %77, ptr %78, align 4
  br label %79

79:                                               ; preds = %74, %66
  br label %80

80:                                               ; preds = %79, %51
  %81 = load ptr, ptr %4, align 8
  %82 = getelementptr inbounds %struct.Ssw_Man_t_, ptr %81, i32 0, i32 8
  %83 = load ptr, ptr %82, align 8
  %84 = getelementptr inbounds %struct.Ssw_Sat_t_, ptr %83, i32 0, i32 2
  %85 = load ptr, ptr %84, align 8
  %86 = getelementptr inbounds [2 x i32], ptr %7, i64 0, i64 0
  %87 = getelementptr inbounds [2 x i32], ptr %7, i64 0, i64 0
  %88 = getelementptr inbounds i32, ptr %87, i64 1
  %89 = call i32 @sat_solver_addclause(ptr noundef %85, ptr noundef %86, ptr noundef %88)
  store i32 %89, ptr %8, align 4
  br label %226

90:                                               ; preds = %31
  %91 = load ptr, ptr %4, align 8
  %92 = getelementptr inbounds %struct.Ssw_Man_t_, ptr %91, i32 0, i32 8
  %93 = load ptr, ptr %92, align 8
  %94 = load ptr, ptr %5, align 8
  %95 = call i32 @Ssw_ObjSatNum(ptr noundef %93, ptr noundef %94)
  %96 = call i32 @toLitCond(i32 noundef %95, i32 noundef 0)
  %97 = getelementptr inbounds [2 x i32], ptr %7, i64 0, i64 0
  store i32 %96, ptr %97, align 4
  %98 = load ptr, ptr %4, align 8
  %99 = getelementptr inbounds %struct.Ssw_Man_t_, ptr %98, i32 0, i32 8
  %100 = load ptr, ptr %99, align 8
  %101 = load ptr, ptr %6, align 8
  %102 = call i32 @Ssw_ObjSatNum(ptr noundef %100, ptr noundef %101)
  %103 = load i32, ptr %9, align 4
  %104 = icmp ne i32 %103, 0
  %105 = xor i1 %104, true
  %106 = zext i1 %105 to i32
  %107 = call i32 @toLitCond(i32 noundef %102, i32 noundef %106)
  %108 = getelementptr inbounds [2 x i32], ptr %7, i64 0, i64 1
  store i32 %107, ptr %108, align 4
  %109 = load ptr, ptr %4, align 8
  %110 = getelementptr inbounds %struct.Ssw_Man_t_, ptr %109, i32 0, i32 0
  %111 = load ptr, ptr %110, align 8
  %112 = getelementptr inbounds %struct.Ssw_Pars_t_, ptr %111, i32 0, i32 17
  %113 = load i32, ptr %112, align 4
  %114 = icmp ne i32 %113, 0
  br i1 %114, label %115, label %142

115:                                              ; preds = %90
  %116 = load ptr, ptr %5, align 8
  %117 = getelementptr inbounds %struct.Aig_Obj_t_, ptr %116, i32 0, i32 3
  %118 = load i64, ptr %117, align 8
  %119 = lshr i64 %118, 3
  %120 = and i64 %119, 1
  %121 = trunc i64 %120 to i32
  %122 = icmp ne i32 %121, 0
  br i1 %122, label %123, label %128

123:                                              ; preds = %115
  %124 = getelementptr inbounds [2 x i32], ptr %7, i64 0, i64 0
  %125 = load i32, ptr %124, align 4
  %126 = call i32 @lit_neg(i32 noundef %125)
  %127 = getelementptr inbounds [2 x i32], ptr %7, i64 0, i64 0
  store i32 %126, ptr %127, align 4
  br label %128

128:                                              ; preds = %123, %115
  %129 = load ptr, ptr %6, align 8
  %130 = getelementptr inbounds %struct.Aig_Obj_t_, ptr %129, i32 0, i32 3
  %131 = load i64, ptr %130, align 8
  %132 = lshr i64 %131, 3
  %133 = and i64 %132, 1
  %134 = trunc i64 %133 to i32
  %135 = icmp ne i32 %134, 0
  br i1 %135, label %136, label %141

136:                                              ; preds = %128
  %137 = getelementptr inbounds [2 x i32], ptr %7, i64 0, i64 1
  %138 = load i32, ptr %137, align 4
  %139 = call i32 @lit_neg(i32 noundef %138)
  %140 = getelementptr inbounds [2 x i32], ptr %7, i64 0, i64 1
  store i32 %139, ptr %140, align 4
  br label %141

141:                                              ; preds = %136, %128
  br label %142

142:                                              ; preds = %141, %90
  %143 = getelementptr inbounds [2 x i32], ptr %7, i64 0, i64 0
  %144 = load i32, ptr %143, align 4
  %145 = call i32 @lit_neg(i32 noundef %144)
  %146 = getelementptr inbounds [2 x i32], ptr %7, i64 0, i64 0
  store i32 %145, ptr %146, align 4
  %147 = getelementptr inbounds [2 x i32], ptr %7, i64 0, i64 1
  %148 = load i32, ptr %147, align 4
  %149 = call i32 @lit_neg(i32 noundef %148)
  %150 = getelementptr inbounds [2 x i32], ptr %7, i64 0, i64 1
  store i32 %149, ptr %150, align 4
  %151 = load ptr, ptr %4, align 8
  %152 = getelementptr inbounds %struct.Ssw_Man_t_, ptr %151, i32 0, i32 8
  %153 = load ptr, ptr %152, align 8
  %154 = getelementptr inbounds %struct.Ssw_Sat_t_, ptr %153, i32 0, i32 2
  %155 = load ptr, ptr %154, align 8
  %156 = getelementptr inbounds [2 x i32], ptr %7, i64 0, i64 0
  %157 = getelementptr inbounds [2 x i32], ptr %7, i64 0, i64 0
  %158 = getelementptr inbounds i32, ptr %157, i64 2
  %159 = call i32 @sat_solver_addclause(ptr noundef %155, ptr noundef %156, ptr noundef %158)
  store i32 %159, ptr %8, align 4
  %160 = load ptr, ptr %4, align 8
  %161 = getelementptr inbounds %struct.Ssw_Man_t_, ptr %160, i32 0, i32 8
  %162 = load ptr, ptr %161, align 8
  %163 = load ptr, ptr %5, align 8
  %164 = call i32 @Ssw_ObjSatNum(ptr noundef %162, ptr noundef %163)
  %165 = call i32 @toLitCond(i32 noundef %164, i32 noundef 1)
  %166 = getelementptr inbounds [2 x i32], ptr %7, i64 0, i64 0
  store i32 %165, ptr %166, align 4
  %167 = load ptr, ptr %4, align 8
  %168 = getelementptr inbounds %struct.Ssw_Man_t_, ptr %167, i32 0, i32 8
  %169 = load ptr, ptr %168, align 8
  %170 = load ptr, ptr %6, align 8
  %171 = call i32 @Ssw_ObjSatNum(ptr noundef %169, ptr noundef %170)
  %172 = load i32, ptr %9, align 4
  %173 = call i32 @toLitCond(i32 noundef %171, i32 noundef %172)
  %174 = getelementptr inbounds [2 x i32], ptr %7, i64 0, i64 1
  store i32 %173, ptr %174, align 4
  %175 = load ptr, ptr %4, align 8
  %176 = getelementptr inbounds %struct.Ssw_Man_t_, ptr %175, i32 0, i32 0
  %177 = load ptr, ptr %176, align 8
  %178 = getelementptr inbounds %struct.Ssw_Pars_t_, ptr %177, i32 0, i32 17
  %179 = load i32, ptr %178, align 4
  %180 = icmp ne i32 %179, 0
  br i1 %180, label %181, label %208

181:                                              ; preds = %142
  %182 = load ptr, ptr %5, align 8
  %183 = getelementptr inbounds %struct.Aig_Obj_t_, ptr %182, i32 0, i32 3
  %184 = load i64, ptr %183, align 8
  %185 = lshr i64 %184, 3
  %186 = and i64 %185, 1
  %187 = trunc i64 %186 to i32
  %188 = icmp ne i32 %187, 0
  br i1 %188, label %189, label %194

189:                                              ; preds = %181
  %190 = getelementptr inbounds [2 x i32], ptr %7, i64 0, i64 0
  %191 = load i32, ptr %190, align 4
  %192 = call i32 @lit_neg(i32 noundef %191)
  %193 = getelementptr inbounds [2 x i32], ptr %7, i64 0, i64 0
  store i32 %192, ptr %193, align 4
  br label %194

194:                                              ; preds = %189, %181
  %195 = load ptr, ptr %6, align 8
  %196 = getelementptr inbounds %struct.Aig_Obj_t_, ptr %195, i32 0, i32 3
  %197 = load i64, ptr %196, align 8
  %198 = lshr i64 %197, 3
  %199 = and i64 %198, 1
  %200 = trunc i64 %199 to i32
  %201 = icmp ne i32 %200, 0
  br i1 %201, label %202, label %207

202:                                              ; preds = %194
  %203 = getelementptr inbounds [2 x i32], ptr %7, i64 0, i64 1
  %204 = load i32, ptr %203, align 4
  %205 = call i32 @lit_neg(i32 noundef %204)
  %206 = getelementptr inbounds [2 x i32], ptr %7, i64 0, i64 1
  store i32 %205, ptr %206, align 4
  br label %207

207:                                              ; preds = %202, %194
  br label %208

208:                                              ; preds = %207, %142
  %209 = getelementptr inbounds [2 x i32], ptr %7, i64 0, i64 0
  %210 = load i32, ptr %209, align 4
  %211 = call i32 @lit_neg(i32 noundef %210)
  %212 = getelementptr inbounds [2 x i32], ptr %7, i64 0, i64 0
  store i32 %211, ptr %212, align 4
  %213 = getelementptr inbounds [2 x i32], ptr %7, i64 0, i64 1
  %214 = load i32, ptr %213, align 4
  %215 = call i32 @lit_neg(i32 noundef %214)
  %216 = getelementptr inbounds [2 x i32], ptr %7, i64 0, i64 1
  store i32 %215, ptr %216, align 4
  %217 = load ptr, ptr %4, align 8
  %218 = getelementptr inbounds %struct.Ssw_Man_t_, ptr %217, i32 0, i32 8
  %219 = load ptr, ptr %218, align 8
  %220 = getelementptr inbounds %struct.Ssw_Sat_t_, ptr %219, i32 0, i32 2
  %221 = load ptr, ptr %220, align 8
  %222 = getelementptr inbounds [2 x i32], ptr %7, i64 0, i64 0
  %223 = getelementptr inbounds [2 x i32], ptr %7, i64 0, i64 0
  %224 = getelementptr inbounds i32, ptr %223, i64 2
  %225 = call i32 @sat_solver_addclause(ptr noundef %221, ptr noundef %222, ptr noundef %224)
  store i32 %225, ptr %8, align 4
  br label %226

226:                                              ; preds = %208, %80
  ret i32 1
}