; Function Attrs: nounwind uwtable
define noundef i32 @Ssw_NodesAreConstrained(ptr noundef readonly captures(none) %0, ptr noundef %1, ptr noundef %2) local_unnamed_addr #0 {
  %4 = alloca [2 x i32], align 4
  %5 = ptrtoint ptr %2 to i64
  %6 = and i64 %5, -2
  %7 = inttoptr i64 %6 to ptr
  %8 = getelementptr inbounds nuw i8, ptr %0, i64 24
  %9 = load ptr, ptr %8, align 8
  %10 = getelementptr i8, ptr %9, i64 48
  %.val60 = load ptr, ptr %10, align 8
  %11 = icmp eq ptr %.val60, %7
  %spec.select = select i1 %11, ptr %1, ptr %2
  %spec.select50 = select i1 %11, ptr %2, ptr %1
  %12 = ptrtoint ptr %spec.select50 to i64
  %13 = and i64 %12, 1
  %.not = icmp eq i64 %13, 0
  %14 = and i64 %12, -2
  %15 = inttoptr i64 %14 to ptr
  %16 = ptrtoint ptr %spec.select to i64
  %.1 = select i1 %.not, ptr %spec.select50, ptr %15
  %17 = getelementptr inbounds nuw i8, ptr %0, i64 64
  %18 = load ptr, ptr %17, align 8
  tail call void @Ssw_CnfNodeAddToSolver(ptr noundef %18, ptr noundef %.1) #6
  %19 = load ptr, ptr %17, align 8
  %20 = xor i64 %12, %16
  %21 = and i64 %16, -2
  %22 = inttoptr i64 %21 to ptr
  tail call void @Ssw_CnfNodeAddToSolver(ptr noundef %19, ptr noundef %22) #6
  %23 = trunc i64 %20 to i32
  %24 = and i32 %23, 1
  %25 = load ptr, ptr %8, align 8
  %26 = getelementptr i8, ptr %25, i64 48
  %.val59 = load ptr, ptr %26, align 8
  %27 = icmp eq ptr %.1, %.val59
  %28 = load ptr, ptr %17, align 8
  %29 = getelementptr i8, ptr %28, i64 32
  %.val57 = load ptr, ptr %29, align 8
  br i1 %27, label %30, label %50

30:                                               ; preds = %3
  %31 = getelementptr i8, ptr %22, i64 36
  %.val58 = load i32, ptr %31, align 4
  %32 = tail call fastcc i32 @Ssw_ObjSatNum(ptr %.val57, i32 %.val58)
  %33 = shl nsw i32 %32, 1
  %34 = or disjoint i32 %33, %24
  store i32 %34, ptr %4, align 4
  %35 = load ptr, ptr %0, align 8
  %36 = getelementptr inbounds nuw i8, ptr %35, i64 68
  %37 = load i32, ptr %36, align 4
  %.not48 = icmp eq i32 %37, 0
  br i1 %.not48, label %44, label %38

38:                                               ; preds = %30
  %39 = getelementptr inbounds nuw i8, ptr %22, i64 24
  %40 = load i64, ptr %39, align 8
  %41 = and i64 %40, 8
  %.not49 = icmp eq i64 %41, 0
  br i1 %.not49, label %44, label %42

42:                                               ; preds = %38
  %43 = xor i32 %34, 1
  store i32 %43, ptr %4, align 4
  br label %44

44:                                               ; preds = %38, %42, %30
  %45 = load ptr, ptr %17, align 8
  %46 = getelementptr inbounds nuw i8, ptr %45, i64 16
  %47 = load ptr, ptr %46, align 8
  %48 = getelementptr inbounds nuw i8, ptr %4, i64 4
  %49 = call i32 @sat_solver_addclause(ptr noundef %47, ptr noundef nonnull %4, ptr noundef nonnull %48) #6
  br label %119

50:                                               ; preds = %3
  %51 = getelementptr i8, ptr %.1, i64 36
  %.1.val56 = load i32, ptr %51, align 4
  %52 = tail call fastcc i32 @Ssw_ObjSatNum(ptr %.val57, i32 %.1.val56)
  %53 = shl nsw i32 %52, 1
  store i32 %53, ptr %4, align 4
  %54 = load ptr, ptr %17, align 8
  %55 = getelementptr i8, ptr %54, i64 32
  %.val53 = load ptr, ptr %55, align 8
  %56 = getelementptr i8, ptr %22, i64 36
  %.val54 = load i32, ptr %56, align 4
  %57 = tail call fastcc i32 @Ssw_ObjSatNum(ptr %.val53, i32 %.val54)
  %58 = shl nsw i32 %57, 1
  %59 = or disjoint i32 %58, %24
  %60 = getelementptr inbounds nuw i8, ptr %4, i64 4
  %61 = load ptr, ptr %0, align 8
  %62 = getelementptr inbounds nuw i8, ptr %61, i64 68
  %63 = load i32, ptr %62, align 4
  %.not42 = icmp eq i32 %63, 0
  br i1 %.not42, label %75, label %64

64:                                               ; preds = %50
  %65 = getelementptr inbounds nuw i8, ptr %.1, i64 24
  %66 = load i64, ptr %65, align 8
  %67 = trunc i64 %66 to i32
  %68 = lshr i32 %67, 3
  %69 = and i32 %68, 1
  %spec.select61 = or disjoint i32 %53, %69
  %70 = getelementptr inbounds nuw i8, ptr %22, i64 24
  %71 = load i64, ptr %70, align 8
  %72 = trunc i64 %71 to i32
  %73 = lshr i32 %72, 3
  %74 = and i32 %73, 1
  %spec.select63 = xor i32 %59, %74
  br label %75

75:                                               ; preds = %64, %50
  %76 = phi i32 [ %59, %50 ], [ %spec.select63, %64 ]
  %77 = phi i32 [ %53, %50 ], [ %spec.select61, %64 ]
  %78 = xor i32 %77, 1
  store i32 %78, ptr %4, align 4
  store i32 %76, ptr %60, align 4
  %79 = load ptr, ptr %17, align 8
  %80 = getelementptr inbounds nuw i8, ptr %79, i64 16
  %81 = load ptr, ptr %80, align 8
  %82 = getelementptr inbounds nuw i8, ptr %4, i64 8
  %83 = call i32 @sat_solver_addclause(ptr noundef %81, ptr noundef nonnull %4, ptr noundef nonnull %82) #6
  %84 = load ptr, ptr %17, align 8
  %85 = getelementptr i8, ptr %84, i64 32
  %.val52 = load ptr, ptr %85, align 8
  %.1.val = load i32, ptr %51, align 4
  %86 = call fastcc i32 @Ssw_ObjSatNum(ptr %.val52, i32 %.1.val)
  %87 = shl nsw i32 %86, 1
  %88 = or disjoint i32 %87, 1
  store i32 %88, ptr %4, align 4
  %89 = load ptr, ptr %17, align 8
  %90 = getelementptr i8, ptr %89, i64 32
  %.val = load ptr, ptr %90, align 8
  %.val51 = load i32, ptr %56, align 4
  %91 = call fastcc i32 @Ssw_ObjSatNum(ptr %.val, i32 %.val51)
  %92 = shl nsw i32 %91, 1
  %93 = or disjoint i32 %92, %24
  %94 = load ptr, ptr %0, align 8
  %95 = getelementptr inbounds nuw i8, ptr %94, i64 68
  %96 = load i32, ptr %95, align 4
  %.not45 = icmp eq i32 %96, 0
  br i1 %.not45, label %110, label %97

97:                                               ; preds = %75
  %98 = getelementptr inbounds nuw i8, ptr %.1, i64 24
  %99 = load i64, ptr %98, align 8
  %100 = and i64 %99, 8
  %.not46 = icmp eq i64 %100, 0
  br i1 %.not46, label %104, label %101

101:                                              ; preds = %97
  %102 = load i32, ptr %4, align 4
  %103 = xor i32 %102, 1
  store i32 %103, ptr %4, align 4
  br label %104

104:                                              ; preds = %101, %97
  %105 = getelementptr inbounds nuw i8, ptr %22, i64 24
  %106 = load i64, ptr %105, align 8
  %107 = trunc i64 %106 to i32
  %108 = lshr i32 %107, 3
  %109 = and i32 %108, 1
  %spec.select62 = xor i32 %93, %109
  br label %110

110:                                              ; preds = %104, %75
  %111 = phi i32 [ %93, %75 ], [ %spec.select62, %104 ]
  %112 = load i32, ptr %4, align 4
  %113 = xor i32 %112, 1
  store i32 %113, ptr %4, align 4
  %114 = xor i32 %111, 1
  store i32 %114, ptr %60, align 4
  %115 = load ptr, ptr %17, align 8
  %116 = getelementptr inbounds nuw i8, ptr %115, i64 16
  %117 = load ptr, ptr %116, align 8
  %118 = call i32 @sat_solver_addclause(ptr noundef %117, ptr noundef nonnull %4, ptr noundef nonnull %82) #6
  br label %119

119:                                              ; preds = %110, %44
  ret i32 1
}